target datalayout = "e-m:e-p270:32:32-p271:32:32-p272:64:64-i64:64-i128:128-f80:128-n8:16:32:64-S128"
target triple = "x86_64-pc-linux-gnu"

%struct.UConverterSelector = type { ptr, ptr, i32, ptr, i32, i32, ptr, i8, i8 }
%struct.UTrie2 = type { ptr, ptr, ptr, i32, i32, i16, i16, i32, i32, i32, i32, ptr, i32, i8, i8, i16, ptr }

; Function Attrs: mustprogress nounwind uwtable
define internal noundef signext i8 @_ZL14intersectMasksPjPKji(ptr noundef %0, ptr noundef %1, i32 noundef %2) #4 {
  %4 = alloca ptr, align 8
  %5 = alloca ptr, align 8
  %6 = alloca i32, align 4
  %7 = alloca i32, align 4
  %8 = alloca i32, align 4
  store ptr %0, ptr %4, align 8, !tbaa !65
  store ptr %1, ptr %5, align 8, !tbaa !65
  store i32 %2, ptr %6, align 4, !tbaa !9
  call void @llvm.lifetime.start.p0(i64 4, ptr %7) #11
  call void @llvm.lifetime.start.p0(i64 4, ptr %8) #11
  store i32 0, ptr %8, align 4, !tbaa !9
  store i32 0, ptr %7, align 4, !tbaa !9
  br label %9

9:                                                ; preds = %27, %3
  %10 = load i32, ptr %7, align 4, !tbaa !9
  %11 = load i32, ptr %6, align 4, !tbaa !9
  %12 = icmp slt i32 %10, %11
  br i1 %12, label %13, label %30

13:                                               ; preds = %9
  %14 = load ptr, ptr %5, align 8, !tbaa !65
  %15 = load i32, ptr %7, align 4, !tbaa !9
  %16 = sext i32 %15 to i64
  %17 = getelementptr inbounds i32, ptr %14, i64 %16
  %18 = load i32, ptr %17, align 4, !tbaa !9
  %19 = load ptr, ptr %4, align 8, !tbaa !65
  %20 = load i32, ptr %7, align 4, !tbaa !9
  %21 = sext i32 %20 to i64
  %22 = getelementptr inbounds i32, ptr %19, i64 %21
  %23 = load i32, ptr %22, align 4, !tbaa !9
  %24 = and i32 %23, %18
  store i32 %24, ptr %22, align 4, !tbaa !9
  %25 = load i32, ptr %8, align 4, !tbaa !9
  %26 = or i32 %25, %24
  store i32 %26, ptr %8, align 4, !tbaa !9
  br label %27

27:                                               ; preds = %13
  %28 = load i32, ptr %7, align 4, !tbaa !9
  %29 = add nsw i32 %28, 1
  store i32 %29, ptr %7, align 4, !tbaa !9
  br label %9, !llvm.loop !83

30:                                               ; preds = %9
  %31 = load i32, ptr %8, align 4, !tbaa !9
  %32 = icmp eq i32 %31, 0
  %33 = zext i1 %32 to i8
  call void @llvm.lifetime.end.p0(i64 4, ptr %8) #11
  call void @llvm.lifetime.end.p0(i64 4, ptr %7) #11
  ret i8 %33
}

; Function Attrs: inlinehint mustprogress nounwind uwtable
define internal noundef signext i8 @_ZL9U_FAILURE10UErrorCode(i32 noundef %0) #1 {
  %2 = alloca i32, align 4
  store i32 %0, ptr %2, align 4, !tbaa !16
  %3 = load i32, ptr %2, align 4, !tbaa !16
  %4 = icmp sgt i32 %3, 0
  %5 = zext i1 %4 to i8
  ret i8 %5
}

; Function Attrs: mustprogress uwtable
define ptr @ucnvsel_selectForString_77(ptr noundef %0, ptr noundef %1, i32 noundef %2, ptr noundef %3) #0 {
  %5 = alloca ptr, align 8
  %6 = alloca ptr, align 8
  %7 = alloca ptr, align 8
  %8 = alloca i32, align 4
  %9 = alloca ptr, align 8
  %10 = alloca i32, align 4
  %11 = alloca ptr, align 8
  %12 = alloca i32, align 4
  %13 = alloca ptr, align 8
  %14 = alloca i32, align 4
  %15 = alloca i16, align 2
  %16 = alloca i16, align 2
  store ptr %0, ptr %6, align 8, !tbaa !36
  store ptr %1, ptr %7, align 8, !tbaa !71
  store i32 %2, ptr %8, align 4, !tbaa !9
  store ptr %3, ptr %9, align 8, !tbaa !15
  %17 = load ptr, ptr %9, align 8, !tbaa !15
  %18 = load i32, ptr %17, align 4, !tbaa !16
  %19 = call noundef signext i8 @_ZL9U_FAILURE10UErrorCode(i32 noundef %18)
  %20 = icmp ne i8 %19, 0
  br i1 %20, label %21, label %22

21:                                               ; preds = %4
  store ptr null, ptr %5, align 8
  br label %236

22:                                               ; preds = %4
  %23 = load ptr, ptr %6, align 8, !tbaa !36
  %24 = icmp eq ptr %23, null
  br i1 %24, label %31, label %25

25:                                               ; preds = %22
  %26 = load ptr, ptr %7, align 8, !tbaa !71
  %27 = icmp eq ptr %26, null
  br i1 %27, label %28, label %33

28:                                               ; preds = %25
  %29 = load i32, ptr %8, align 4, !tbaa !9
  %30 = icmp ne i32 %29, 0
  br i1 %30, label %31, label %33

31:                                               ; preds = %28, %22
  %32 = load ptr, ptr %9, align 8, !tbaa !15
  store i32 1, ptr %32, align 4, !tbaa !16
  store ptr null, ptr %5, align 8
  br label %236

33:                                               ; preds = %28, %25
  call void @llvm.lifetime.start.p0(i64 4, ptr %10) #11
  %34 = load ptr, ptr %6, align 8, !tbaa !36
  %35 = getelementptr inbounds nuw %struct.UConverterSelector, ptr %34, i32 0, i32 4
  %36 = load i32, ptr %35, align 8, !tbaa !31
  %37 = add nsw i32 %36, 31
  %38 = sdiv i32 %37, 32
  store i32 %38, ptr %10, align 4, !tbaa !9
  call void @llvm.lifetime.start.p0(i64 8, ptr %11) #11
  %39 = load i32, ptr %10, align 4, !tbaa !9
  %40 = mul nsw i32 %39, 4
  %41 = sext i32 %40 to i64
  %42 = call noalias ptr @uprv_malloc_77(i64 noundef %41) #12
  store ptr %42, ptr %11, align 8, !tbaa !65
  %43 = load ptr, ptr %11, align 8, !tbaa !65
  %44 = icmp eq ptr %43, null
  br i1 %44, label %45, label %47

45:                                               ; preds = %33
  %46 = load ptr, ptr %9, align 8, !tbaa !15
  store i32 7, ptr %46, align 4, !tbaa !16
  store ptr null, ptr %5, align 8
  store i32 1, ptr %12, align 4
  br label %235

47:                                               ; preds = %33
  %48 = load ptr, ptr %11, align 8, !tbaa !65
  %49 = load i32, ptr %10, align 4, !tbaa !9
  %50 = mul nsw i32 %49, 4
  %51 = sext i32 %50 to i64
  call void @llvm.memset.p0.i64(ptr align 4 %48, i8 -1, i64 %51, i1 false)
  %52 = load ptr, ptr %7, align 8, !tbaa !71
  %53 = icmp ne ptr %52, null
  br i1 %53, label %54, label %230

54:                                               ; preds = %47
  call void @llvm.lifetime.start.p0(i64 8, ptr %13) #11
  %55 = load i32, ptr %8, align 4, !tbaa !9
  %56 = icmp sge i32 %55, 0
  br i1 %56, label %57, label %62

57:                                               ; preds = %54
  %58 = load ptr, ptr %7, align 8, !tbaa !71
  %59 = load i32, ptr %8, align 4, !tbaa !9
  %60 = sext i32 %59 to i64
  %61 = getelementptr inbounds i16, ptr %58, i64 %60
  store ptr %61, ptr %13, align 8, !tbaa !71
  br label %63

62:                                               ; preds = %54
  store ptr null, ptr %13, align 8, !tbaa !71
  br label %63

63:                                               ; preds = %62, %57
  br label %64

64:                                               ; preds = %228, %63
  %65 = load ptr, ptr %13, align 8, !tbaa !71
  %66 = icmp eq ptr %65, null
  br i1 %66, label %67, label %72

67:                                               ; preds = %64
  %68 = load ptr, ptr %7, align 8, !tbaa !71
  %69 = load i16, ptr %68, align 2, !tbaa !73
  %70 = zext i16 %69 to i32
  %71 = icmp ne i32 %70, 0
  br label %76

72:                                               ; preds = %64
  %73 = load ptr, ptr %7, align 8, !tbaa !71
  %74 = load ptr, ptr %13, align 8, !tbaa !71
  %75 = icmp ne ptr %73, %74
  br label %76

76:                                               ; preds = %72, %67
  %77 = phi i1 [ %71, %67 ], [ %75, %72 ]
  br i1 %77, label %78, label %229

78:                                               ; preds = %76
  call void @llvm.lifetime.start.p0(i64 4, ptr %14) #11
  call void @llvm.lifetime.start.p0(i64 2, ptr %15) #11
  br label %79

79:                                               ; preds = %78
  call void @llvm.lifetime.start.p0(i64 2, ptr %16) #11
  %80 = load ptr, ptr %7, align 8, !tbaa !71
  %81 = getelementptr inbounds nuw i16, ptr %80, i32 1
  store ptr %81, ptr %7, align 8, !tbaa !71
  %82 = load i16, ptr %80, align 2, !tbaa !73
  %83 = zext i16 %82 to i32
  store i32 %83, ptr %14, align 4, !tbaa !9
  %84 = load i32, ptr %14, align 4, !tbaa !9
  %85 = and i32 %84, -1024
  %86 = icmp eq i32 %85, 55296
  br i1 %86, label %112, label %87

87:                                               ; preds = %79
  %88 = load ptr, ptr %6, align 8, !tbaa !36
  %89 = getelementptr inbounds nuw %struct.UConverterSelector, ptr %88, i32 0, i32 0
  %90 = load ptr, ptr %89, align 8, !tbaa !49
  %91 = getelementptr inbounds nuw %struct.UTrie2, ptr %90, i32 0, i32 0
  %92 = load ptr, ptr %91, align 8, !tbaa !75
  %93 = load ptr, ptr %6, align 8, !tbaa !36
  %94 = getelementptr inbounds nuw %struct.UConverterSelector, ptr %93, i32 0, i32 0
  %95 = load ptr, ptr %94, align 8, !tbaa !49
  %96 = getelementptr inbounds nuw %struct.UTrie2, ptr %95, i32 0, i32 0
  %97 = load ptr, ptr %96, align 8, !tbaa !75
  %98 = load i32, ptr %14, align 4, !tbaa !9
  %99 = ashr i32 %98, 5
  %100 = add nsw i32 0, %99
  %101 = sext i32 %100 to i64
  %102 = getelementptr inbounds i16, ptr %97, i64 %101
  %103 = load i16, ptr %102, align 2, !tbaa !79
  %104 = zext i16 %103 to i32
  %105 = shl i32 %104, 2
  %106 = load i32, ptr %14, align 4, !tbaa !9
  %107 = and i32 %106, 31
  %108 = add nsw i32 %105, %107
  %109 = sext i32 %108 to i64
  %110 = getelementptr inbounds i16, ptr %92, i64 %109
  %111 = load i16, ptr %110, align 2, !tbaa !79
  store i16 %111, ptr %15, align 2, !tbaa !79
  br label %210

112:                                              ; preds = %79
  %113 = load ptr, ptr %7, align 8, !tbaa !71
  %114 = load ptr, ptr %13, align 8, !tbaa !71
  %115 = icmp eq ptr %113, %114
  br i1 %115, label %122, label %116

116:                                              ; preds = %112
  %117 = load ptr, ptr %7, align 8, !tbaa !71
  %118 = load i16, ptr %117, align 2, !tbaa !73
  store i16 %118, ptr %16, align 2, !tbaa !79
  %119 = zext i16 %118 to i32
  %120 = and i32 %119, -1024
  %121 = icmp eq i32 %120, 56320
  br i1 %121, label %147, label %122

122:                                              ; preds = %116, %112
  %123 = load ptr, ptr %6, align 8, !tbaa !36
  %124 = getelementptr inbounds nuw %struct.UConverterSelector, ptr %123, i32 0, i32 0
  %125 = load ptr, ptr %124, align 8, !tbaa !49
  %126 = getelementptr inbounds nuw %struct.UTrie2, ptr %125, i32 0, i32 0
  %127 = load ptr, ptr %126, align 8, !tbaa !75
  %128 = load ptr, ptr %6, align 8, !tbaa !36
  %129 = getelementptr inbounds nuw %struct.UConverterSelector, ptr %128, i32 0, i32 0
  %130 = load ptr, ptr %129, align 8, !tbaa !49
  %131 = getelementptr inbounds nuw %struct.UTrie2, ptr %130, i32 0, i32 0
  %132 = load ptr, ptr %131, align 8, !tbaa !75
  %133 = load i32, ptr %14, align 4, !tbaa !9
  %134 = ashr i32 %133, 5
  %135 = add nsw i32 320, %134
  %136 = sext i32 %135 to i64
  %137 = getelementptr inbounds i16, ptr %132, i64 %136
  %138 = load i16, ptr %137, align 2, !tbaa !79
  %139 = zext i16 %138 to i32
  %140 = shl i32 %139, 2
  %141 = load i32, ptr %14, align 4, !tbaa !9
  %142 = and i32 %141, 31
  %143 = add nsw i32 %140, %142
  %144 = sext i32 %143 to i64
  %145 = getelementptr inbounds i16, ptr %127, i64 %144
  %146 = load i16, ptr %145, align 2, !tbaa !79
  store i16 %146, ptr %15, align 2, !tbaa !79
  br label %209

147:                                              ; preds = %116
  %148 = load ptr, ptr %7, align 8, !tbaa !71
  %149 = getelementptr inbounds nuw i16, ptr %148, i32 1
  store ptr %149, ptr %7, align 8, !tbaa !71
  %150 = load i32, ptr %14, align 4, !tbaa !9
  %151 = shl i32 %150, 10
  %152 = load i16, ptr %16, align 2, !tbaa !79
  %153 = zext i16 %152 to i32
  %154 = add nsw i32 %151, %153
  %155 = sub nsw i32 %154, 56613888
  store i32 %155, ptr %14, align 4, !tbaa !9
  %156 = load ptr, ptr %6, align 8, !tbaa !36
  %157 = getelementptr inbounds nuw %struct.UConverterSelector, ptr %156, i32 0, i32 0
  %158 = load ptr, ptr %157, align 8, !tbaa !49
  %159 = getelementptr inbounds nuw %struct.UTrie2, ptr %158, i32 0, i32 0
  %160 = load ptr, ptr %159, align 8, !tbaa !75
  %161 = load i32, ptr %14, align 4, !tbaa !9
  %162 = load ptr, ptr %6, align 8, !tbaa !36
  %163 = getelementptr inbounds nuw %struct.UConverterSelector, ptr %162, i32 0, i32 0
  %164 = load ptr, ptr %163, align 8, !tbaa !49
  %165 = getelementptr inbounds nuw %struct.UTrie2, ptr %164, i32 0, i32 9
  %166 = load i32, ptr %165, align 4, !tbaa !80
  %167 = icmp sge i32 %161, %166
  br i1 %167, label %168, label %174

168:                                              ; preds = %147
  %169 = load ptr, ptr %6, align 8, !tbaa !36
  %170 = getelementptr inbounds nuw %struct.UConverterSelector, ptr %169, i32 0, i32 0
  %171 = load ptr, ptr %170, align 8, !tbaa !49
  %172 = getelementptr inbounds nuw %struct.UTrie2, ptr %171, i32 0, i32 10
  %173 = load i32, ptr %172, align 8, !tbaa !81
  br label %204

174:                                              ; preds = %147
  %175 = load ptr, ptr %6, align 8, !tbaa !36
  %176 = getelementptr inbounds nuw %struct.UConverterSelector, ptr %175, i32 0, i32 0
  %177 = load ptr, ptr %176, align 8, !tbaa !49
  %178 = getelementptr inbounds nuw %struct.UTrie2, ptr %177, i32 0, i32 0
  %179 = load ptr, ptr %178, align 8, !tbaa !75
  %180 = load ptr, ptr %6, align 8, !tbaa !36
  %181 = getelementptr inbounds nuw %struct.UConverterSelector, ptr %180, i32 0, i32 0
  %182 = load ptr, ptr %181, align 8, !tbaa !49
  %183 = getelementptr inbounds nuw %struct.UTrie2, ptr %182, i32 0, i32 0
  %184 = load ptr, ptr %183, align 8, !tbaa !75
  %185 = load i32, ptr %14, align 4, !tbaa !9
  %186 = ashr i32 %185, 11
  %187 = add nsw i32 2080, %186
  %188 = sext i32 %187 to i64
  %189 = getelementptr inbounds i16, ptr %184, i64 %188
  %190 = load i16, ptr %189, align 2, !tbaa !79
  %191 = zext i16 %190 to i32
  %192 = load i32, ptr %14, align 4, !tbaa !9
  %193 = ashr i32 %192, 5
  %194 = and i32 %193, 63
  %195 = add nsw i32 %191, %194
  %196 = sext i32 %195 to i64
  %197 = getelementptr inbounds i16, ptr %179, i64 %196
  %198 = load i16, ptr %197, align 2, !tbaa !79
  %199 = zext i16 %198 to i32
  %200 = shl i32 %199, 2
  %201 = load i32, ptr %14, align 4, !tbaa !9
  %202 = and i32 %201, 31
  %203 = add nsw i32 %200, %202
  br label %204

204:                                              ; preds = %174, %168
  %205 = phi i32 [ %173, %168 ], [ %203, %174 ]
  %206 = sext i32 %205 to i64
  %207 = getelementptr inbounds i16, ptr %160, i64 %206
  %208 = load i16, ptr %207, align 2, !tbaa !79
  store i16 %208, ptr %15, align 2, !tbaa !79
  br label %209

209:                                              ; preds = %204, %122
  br label %210

210:                                              ; preds = %209, %87
  call void @llvm.lifetime.end.p0(i64 2, ptr %16) #11
  br label %211

211:                                              ; preds = %210
  br label %212

212:                                              ; preds = %211
  %213 = load ptr, ptr %11, align 8, !tbaa !65
  %214 = load ptr, ptr %6, align 8, !tbaa !36
  %215 = getelementptr inbounds nuw %struct.UConverterSelector, ptr %214, i32 0, i32 1
  %216 = load ptr, ptr %215, align 8, !tbaa !50
  %217 = load i16, ptr %15, align 2, !tbaa !79
  %218 = zext i16 %217 to i32
  %219 = sext i32 %218 to i64
  %220 = getelementptr inbounds i32, ptr %216, i64 %219
  %221 = load i32, ptr %10, align 4, !tbaa !9
  %222 = call noundef signext i8 @_ZL14intersectMasksPjPKji(ptr noundef %213, ptr noundef %220, i32 noundef %221)
  %223 = icmp ne i8 %222, 0
  br i1 %223, label %224, label %225

224:                                              ; preds = %212
  store i32 3, ptr %12, align 4
  br label %226

225:                                              ; preds = %212
  store i32 0, ptr %12, align 4
  br label %226

226:                                              ; preds = %225, %224
  call void @llvm.lifetime.end.p0(i64 2, ptr %15) #11
  call void @llvm.lifetime.end.p0(i64 4, ptr %14) #11
  %227 = load i32, ptr %12, align 4
  switch i32 %227, label %238 [
    i32 0, label %228
    i32 3, label %229
  ]

228:                                              ; preds = %226
  br label %64, !llvm.loop !82

229:                                              ; preds = %226, %76
  call void @llvm.lifetime.end.p0(i64 8, ptr %13) #11
  br label %230

230:                                              ; preds = %229, %47
  %231 = load ptr, ptr %6, align 8, !tbaa !36
  %232 = load ptr, ptr %11, align 8, !tbaa !65
  %233 = load ptr, ptr %9, align 8, !tbaa !15
  %234 = call noundef ptr @_ZL13selectForMaskPK18UConverterSelectorPjP10UErrorCode(ptr noundef %231, ptr noundef %232, ptr noundef %233)
  store ptr %234, ptr %5, align 8
  store i32 1, ptr %12, align 4
  br label %235

235:                                              ; preds = %230, %45
  call void @llvm.lifetime.end.p0(i64 8, ptr %11) #11
  call void @llvm.lifetime.end.p0(i64 4, ptr %10) #11
  br label %236

236:                                              ; preds = %235, %31, %21
  %237 = load ptr, ptr %5, align 8
  ret ptr %237

238:                                              ; preds = %226
  unreachable
}