; Function Attrs: mustprogress uwtable
define noundef ptr @ucnvsel_selectForString_77(ptr noundef %0, ptr noundef readonly %1, i32 noundef %2, ptr noundef captures(none) %3) local_unnamed_addr #0 {
  %5 = load i32, ptr %3, align 4, !tbaa !3
  %6 = icmp slt i32 %5, 1
  br i1 %6, label %7, label %118

7:                                                ; preds = %4
  %8 = icmp eq ptr %0, null
  br i1 %8, label %12, label %9

9:                                                ; preds = %7
  %10 = icmp eq ptr %1, null
  %11 = icmp ne i32 %2, 0
  %or.cond = and i1 %10, %11
  br i1 %or.cond, label %12, label %13

12:                                               ; preds = %9, %7
  store i32 1, ptr %3, align 4, !tbaa !3
  br label %118

13:                                               ; preds = %9
  %14 = getelementptr inbounds nuw i8, ptr %0, i64 32
  %15 = load i32, ptr %14, align 8, !tbaa !26
  %16 = add nsw i32 %15, 31
  %17 = sdiv i32 %16, 32
  %18 = shl nsw i32 %17, 2
  %19 = sext i32 %18 to i64
  %20 = tail call noalias ptr @uprv_malloc_77(i64 noundef %19) #16
  %21 = icmp eq ptr %20, null
  br i1 %21, label %22, label %23

22:                                               ; preds = %13
  store i32 7, ptr %3, align 4, !tbaa !3
  br label %118

23:                                               ; preds = %13
  tail call void @llvm.memset.p0.i64(ptr nonnull align 4 %20, i8 -1, i64 %19, i1 false)
  br i1 %10, label %_ZL14intersectMasksPjPKji.exit.thread, label %24

24:                                               ; preds = %23
  %25 = icmp sgt i32 %2, -1
  %26 = zext nneg i32 %2 to i64
  %27 = getelementptr inbounds nuw i16, ptr %1, i64 %26
  %.054 = select i1 %25, ptr %27, ptr null
  %28 = icmp eq ptr %.054, null
  %29 = getelementptr inbounds nuw i8, ptr %0, i64 8
  %30 = icmp sgt i32 %15, 0
  %wide.trip.count.i = zext nneg i32 %17 to i64
  br label %31

31:                                               ; preds = %_ZL14intersectMasksPjPKji.exit, %24
  %.056 = phi ptr [ %1, %24 ], [ %.157, %_ZL14intersectMasksPjPKji.exit ]
  br i1 %28, label %32, label %34

32:                                               ; preds = %31
  %33 = load i16, ptr %.056, align 2, !tbaa !52
  %.not69 = icmp eq i16 %33, 0
  br i1 %.not69, label %_ZL14intersectMasksPjPKji.exit.thread, label %35

34:                                               ; preds = %31
  %.not = icmp eq ptr %.056, %.054
  br i1 %.not, label %_ZL14intersectMasksPjPKji.exit.thread, label %._crit_edge

._crit_edge:                                      ; preds = %34
  %.pre = load i16, ptr %.056, align 2, !tbaa !52
  br label %35

35:                                               ; preds = %._crit_edge, %32
  %36 = phi i16 [ %.pre, %._crit_edge ], [ %33, %32 ]
  %37 = getelementptr inbounds nuw i8, ptr %.056, i64 2
  %38 = zext i16 %36 to i32
  %39 = and i32 %38, 64512
  %40 = icmp eq i32 %39, 55296
  br i1 %40, label %54, label %41

41:                                               ; preds = %35
  %42 = load ptr, ptr %0, align 8, !tbaa !33
  %43 = load ptr, ptr %42, align 8, !tbaa !54
  %44 = lshr i32 %38, 5
  %45 = zext nneg i32 %44 to i64
  %46 = getelementptr inbounds nuw i16, ptr %43, i64 %45
  %47 = load i16, ptr %46, align 2, !tbaa !58
  %48 = zext i16 %47 to i32
  %49 = shl nuw nsw i32 %48, 2
  %50 = and i32 %38, 31
  %51 = add nuw nsw i32 %49, %50
  %52 = zext nneg i32 %51 to i64
  %53 = getelementptr inbounds nuw i16, ptr %43, i64 %52
  br label %107

54:                                               ; preds = %35
  %55 = icmp eq ptr %37, %.054
  br i1 %55, label %._crit_edge71, label %56

._crit_edge71:                                    ; preds = %54
  %.pre72 = load ptr, ptr %0, align 8, !tbaa !33
  br label %61

56:                                               ; preds = %54
  %57 = load i16, ptr %37, align 2, !tbaa !52
  %58 = zext i16 %57 to i32
  %59 = and i32 %58, 64512
  %60 = icmp eq i32 %59, 56320
  %.pre73 = load ptr, ptr %0, align 8, !tbaa !33
  br i1 %60, label %75, label %61

61:                                               ; preds = %._crit_edge71, %56
  %62 = phi ptr [ %.pre72, %._crit_edge71 ], [ %.pre73, %56 ]
  %63 = load ptr, ptr %62, align 8, !tbaa !54
  %64 = lshr i32 %38, 5
  %65 = zext nneg i32 %64 to i64
  %66 = getelementptr inbounds nuw i16, ptr %63, i64 %65
  %67 = getelementptr inbounds nuw i8, ptr %66, i64 640
  %68 = load i16, ptr %67, align 2, !tbaa !58
  %69 = zext i16 %68 to i32
  %70 = shl nuw nsw i32 %69, 2
  %71 = and i32 %38, 31
  %72 = add nuw nsw i32 %70, %71
  %73 = zext nneg i32 %72 to i64
  %74 = getelementptr inbounds nuw i16, ptr %63, i64 %73
  br label %107

75:                                               ; preds = %56
  %76 = getelementptr inbounds nuw i8, ptr %.056, i64 4
  %77 = shl nuw nsw i32 %38, 10
  %78 = add nsw i32 %77, -56613888
  %79 = add nuw nsw i32 %78, %58
  %80 = load ptr, ptr %.pre73, align 8, !tbaa !54
  %81 = getelementptr inbounds nuw i8, ptr %.pre73, i64 44
  %82 = load i32, ptr %81, align 4, !tbaa !59
  %.not65 = icmp slt i32 %79, %82
  br i1 %.not65, label %86, label %83

83:                                               ; preds = %75
  %84 = getelementptr inbounds nuw i8, ptr %.pre73, i64 48
  %85 = load i32, ptr %84, align 8, !tbaa !60
  br label %103

86:                                               ; preds = %75
  %87 = lshr i32 %79, 11
  %88 = zext nneg i32 %87 to i64
  %89 = getelementptr inbounds nuw i16, ptr %80, i64 %88
  %90 = getelementptr inbounds nuw i8, ptr %89, i64 4160
  %91 = load i16, ptr %90, align 2, !tbaa !58
  %92 = zext i16 %91 to i32
  %93 = lshr i32 %79, 5
  %94 = and i32 %93, 63
  %95 = add nuw nsw i32 %94, %92
  %96 = zext nneg i32 %95 to i64
  %97 = getelementptr inbounds nuw i16, ptr %80, i64 %96
  %98 = load i16, ptr %97, align 2, !tbaa !58
  %99 = zext i16 %98 to i32
  %100 = shl nuw nsw i32 %99, 2
  %101 = and i32 %58, 31
  %102 = add nuw nsw i32 %100, %101
  br label %103

103:                                              ; preds = %86, %83
  %104 = phi i32 [ %85, %83 ], [ %102, %86 ]
  %105 = sext i32 %104 to i64
  %106 = getelementptr inbounds i16, ptr %80, i64 %105
  br label %107

107:                                              ; preds = %61, %103, %41
  %.157 = phi ptr [ %37, %61 ], [ %76, %103 ], [ %37, %41 ]
  %.053.in = phi ptr [ %74, %61 ], [ %106, %103 ], [ %53, %41 ]
  %.053 = load i16, ptr %.053.in, align 2, !tbaa !58
  %108 = load ptr, ptr %29, align 8, !tbaa !34
  %109 = zext i16 %.053 to i64
  %110 = getelementptr inbounds nuw i32, ptr %108, i64 %109
  br i1 %30, label %.lr.ph.i, label %_ZL14intersectMasksPjPKji.exit.thread

.lr.ph.i:                                         ; preds = %107, %.lr.ph.i
  %indvars.iv.i = phi i64 [ %indvars.iv.next.i, %.lr.ph.i ], [ 0, %107 ]
  %.010.i = phi i32 [ %116, %.lr.ph.i ], [ 0, %107 ]
  %111 = getelementptr inbounds nuw i32, ptr %110, i64 %indvars.iv.i
  %112 = load i32, ptr %111, align 4, !tbaa !29
  %113 = getelementptr inbounds nuw i32, ptr %20, i64 %indvars.iv.i
  %114 = load i32, ptr %113, align 4, !tbaa !29
  %115 = and i32 %114, %112
  store i32 %115, ptr %113, align 4, !tbaa !29
  %116 = or i32 %115, %.010.i
  %indvars.iv.next.i = add nuw nsw i64 %indvars.iv.i, 1
  %exitcond.not.i = icmp eq i64 %indvars.iv.next.i, %wide.trip.count.i
  br i1 %exitcond.not.i, label %_ZL14intersectMasksPjPKji.exit, label %.lr.ph.i, !llvm.loop !61

_ZL14intersectMasksPjPKji.exit:                   ; preds = %.lr.ph.i
  %.not70 = icmp eq i32 %116, 0
  br i1 %.not70, label %_ZL14intersectMasksPjPKji.exit.thread, label %31

_ZL14intersectMasksPjPKji.exit.thread:            ; preds = %107, %32, %_ZL14intersectMasksPjPKji.exit, %34, %23
  %117 = tail call fastcc noundef ptr @_ZL13selectForMaskPK18UConverterSelectorPjP10UErrorCode(ptr noundef %0, ptr noundef %20, ptr noundef nonnull %3)
  br label %118

118:                                              ; preds = %22, %_ZL14intersectMasksPjPKji.exit.thread, %4, %12
  %.0 = phi ptr [ null, %12 ], [ null, %4 ], [ null, %22 ], [ %117, %_ZL14intersectMasksPjPKji.exit.thread ]
  ret ptr %.0
}